target datalayout = "e-m:e-p270:32:32-p271:32:32-p272:64:64-i64:64-i128:128-f80:128-n8:16:32:64-S128"
target triple = "x86_64-pc-linux-gnu"

%struct.bn_blinding_st = type { ptr, ptr, ptr, ptr, i64, i32, i64, ptr, ptr, ptr }

@.str = private unnamed_addr constant [32 x i8] c"../openssl/crypto/bn/bn_blind.c\00", align 1
@__func__.BN_BLINDING_create_param = private unnamed_addr constant [25 x i8] c"BN_BLINDING_create_param\00", align 1

; Function Attrs: nounwind uwtable
define void @BN_BLINDING_free(ptr noundef %0) #0 {
  %2 = alloca ptr, align 8
  store ptr %0, ptr %2, align 8, !tbaa !8
  %3 = load ptr, ptr %2, align 8, !tbaa !8
  %4 = icmp eq ptr %3, null
  br i1 %4, label %5, label %6

5:                                                ; preds = %1
  br label %23

6:                                                ; preds = %1
  %7 = load ptr, ptr %2, align 8, !tbaa !8
  %8 = getelementptr inbounds nuw %struct.bn_blinding_st, ptr %7, i32 0, i32 0
  %9 = load ptr, ptr %8, align 8, !tbaa !15
  call void @BN_free(ptr noundef %9)
  %10 = load ptr, ptr %2, align 8, !tbaa !8
  %11 = getelementptr inbounds nuw %struct.bn_blinding_st, ptr %10, i32 0, i32 1
  %12 = load ptr, ptr %11, align 8, !tbaa !16
  call void @BN_free(ptr noundef %12)
  %13 = load ptr, ptr %2, align 8, !tbaa !8
  %14 = getelementptr inbounds nuw %struct.bn_blinding_st, ptr %13, i32 0, i32 2
  %15 = load ptr, ptr %14, align 8, !tbaa !20
  call void @BN_free(ptr noundef %15)
  %16 = load ptr, ptr %2, align 8, !tbaa !8
  %17 = getelementptr inbounds nuw %struct.bn_blinding_st, ptr %16, i32 0, i32 3
  %18 = load ptr, ptr %17, align 8, !tbaa !17
  call void @BN_free(ptr noundef %18)
  %19 = load ptr, ptr %2, align 8, !tbaa !8
  %20 = getelementptr inbounds nuw %struct.bn_blinding_st, ptr %19, i32 0, i32 9
  %21 = load ptr, ptr %20, align 8, !tbaa !10
  call void @CRYPTO_THREAD_lock_free(ptr noundef %21)
  %22 = load ptr, ptr %2, align 8, !tbaa !8
  call void @CRYPTO_free(ptr noundef %22, ptr noundef @.str, i32 noundef 88)
  br label %23

23:                                               ; preds = %6, %5
  ret void
}

; Function Attrs: nounwind uwtable
define ptr @BN_BLINDING_create_param(ptr noundef %0, ptr noundef %1, ptr noundef %2, ptr noundef %3, ptr noundef %4, ptr noundef %5) #0 {
  %7 = alloca ptr, align 8
  %8 = alloca ptr, align 8
  %9 = alloca ptr, align 8
  %10 = alloca ptr, align 8
  %11 = alloca ptr, align 8
  %12 = alloca ptr, align 8
  %13 = alloca ptr, align 8
  %14 = alloca i32, align 4
  %15 = alloca ptr, align 8
  %16 = alloca i32, align 4
  %17 = alloca i32, align 4
  store ptr %0, ptr %8, align 8, !tbaa !8
  store ptr %1, ptr %9, align 8, !tbaa !3
  store ptr %2, ptr %10, align 8, !tbaa !3
  store ptr %3, ptr %11, align 8, !tbaa !21
  store ptr %4, ptr %12, align 8, !tbaa !26
  store ptr %5, ptr %13, align 8, !tbaa !27
  call void @llvm.lifetime.start.p0(i64 4, ptr %14) #3
  store i32 32, ptr %14, align 4, !tbaa !23
  call void @llvm.lifetime.start.p0(i64 8, ptr %15) #3
  store ptr null, ptr %15, align 8, !tbaa !8
  %18 = load ptr, ptr %8, align 8, !tbaa !8
  %19 = icmp eq ptr %18, null
  br i1 %19, label %20, label %23

20:                                               ; preds = %6
  %21 = load ptr, ptr %10, align 8, !tbaa !3
  %22 = call ptr @BN_BLINDING_new(ptr noundef null, ptr noundef null, ptr noundef %21)
  store ptr %22, ptr %15, align 8, !tbaa !8
  br label %25

23:                                               ; preds = %6
  %24 = load ptr, ptr %8, align 8, !tbaa !8
  store ptr %24, ptr %15, align 8, !tbaa !8
  br label %25

25:                                               ; preds = %23, %20
  %26 = load ptr, ptr %15, align 8, !tbaa !8
  %27 = icmp eq ptr %26, null
  br i1 %27, label %28, label %29

28:                                               ; preds = %25
  br label %209

29:                                               ; preds = %25
  %30 = load ptr, ptr %15, align 8, !tbaa !8
  %31 = getelementptr inbounds nuw %struct.bn_blinding_st, ptr %30, i32 0, i32 0
  %32 = load ptr, ptr %31, align 8, !tbaa !15
  %33 = icmp eq ptr %32, null
  br i1 %33, label %34, label %40

34:                                               ; preds = %29
  %35 = call ptr @BN_new()
  %36 = load ptr, ptr %15, align 8, !tbaa !8
  %37 = getelementptr inbounds nuw %struct.bn_blinding_st, ptr %36, i32 0, i32 0
  store ptr %35, ptr %37, align 8, !tbaa !15
  %38 = icmp eq ptr %35, null
  br i1 %38, label %39, label %40

39:                                               ; preds = %34
  br label %209

40:                                               ; preds = %34, %29
  %41 = load ptr, ptr %15, align 8, !tbaa !8
  %42 = getelementptr inbounds nuw %struct.bn_blinding_st, ptr %41, i32 0, i32 1
  %43 = load ptr, ptr %42, align 8, !tbaa !16
  %44 = icmp eq ptr %43, null
  br i1 %44, label %45, label %51

45:                                               ; preds = %40
  %46 = call ptr @BN_new()
  %47 = load ptr, ptr %15, align 8, !tbaa !8
  %48 = getelementptr inbounds nuw %struct.bn_blinding_st, ptr %47, i32 0, i32 1
  store ptr %46, ptr %48, align 8, !tbaa !16
  %49 = icmp eq ptr %46, null
  br i1 %49, label %50, label %51

50:                                               ; preds = %45
  br label %209

51:                                               ; preds = %45, %40
  %52 = load ptr, ptr %9, align 8, !tbaa !3
  %53 = icmp ne ptr %52, null
  br i1 %53, label %54, label %62

54:                                               ; preds = %51
  %55 = load ptr, ptr %15, align 8, !tbaa !8
  %56 = getelementptr inbounds nuw %struct.bn_blinding_st, ptr %55, i32 0, i32 2
  %57 = load ptr, ptr %56, align 8, !tbaa !20
  call void @BN_free(ptr noundef %57)
  %58 = load ptr, ptr %9, align 8, !tbaa !3
  %59 = call ptr @BN_dup(ptr noundef %58)
  %60 = load ptr, ptr %15, align 8, !tbaa !8
  %61 = getelementptr inbounds nuw %struct.bn_blinding_st, ptr %60, i32 0, i32 2
  store ptr %59, ptr %61, align 8, !tbaa !20
  br label %62

62:                                               ; preds = %54, %51
  %63 = load ptr, ptr %15, align 8, !tbaa !8
  %64 = getelementptr inbounds nuw %struct.bn_blinding_st, ptr %63, i32 0, i32 2
  %65 = load ptr, ptr %64, align 8, !tbaa !20
  %66 = icmp eq ptr %65, null
  br i1 %66, label %67, label %68

67:                                               ; preds = %62
  br label %209

68:                                               ; preds = %62
  %69 = load ptr, ptr %12, align 8, !tbaa !26
  %70 = icmp ne ptr %69, null
  br i1 %70, label %71, label %75

71:                                               ; preds = %68
  %72 = load ptr, ptr %12, align 8, !tbaa !26
  %73 = load ptr, ptr %15, align 8, !tbaa !8
  %74 = getelementptr inbounds nuw %struct.bn_blinding_st, ptr %73, i32 0, i32 8
  store ptr %72, ptr %74, align 8, !tbaa !28
  br label %75

75:                                               ; preds = %71, %68
  %76 = load ptr, ptr %13, align 8, !tbaa !27
  %77 = icmp ne ptr %76, null
  br i1 %77, label %78, label %82

78:                                               ; preds = %75
  %79 = load ptr, ptr %13, align 8, !tbaa !27
  %80 = load ptr, ptr %15, align 8, !tbaa !8
  %81 = getelementptr inbounds nuw %struct.bn_blinding_st, ptr %80, i32 0, i32 7
  store ptr %79, ptr %81, align 8, !tbaa !25
  br label %82

82:                                               ; preds = %78, %75
  br label %83

83:                                               ; preds = %121, %82
  call void @llvm.lifetime.start.p0(i64 4, ptr %16) #3
  %84 = load ptr, ptr %15, align 8, !tbaa !8
  %85 = getelementptr inbounds nuw %struct.bn_blinding_st, ptr %84, i32 0, i32 0
  %86 = load ptr, ptr %85, align 8, !tbaa !15
  %87 = load ptr, ptr %15, align 8, !tbaa !8
  %88 = getelementptr inbounds nuw %struct.bn_blinding_st, ptr %87, i32 0, i32 3
  %89 = load ptr, ptr %88, align 8, !tbaa !17
  %90 = load ptr, ptr %11, align 8, !tbaa !21
  %91 = call i32 @BN_priv_rand_range_ex(ptr noundef %86, ptr noundef %89, i32 noundef 0, ptr noundef %90)
  %92 = icmp ne i32 %91, 0
  br i1 %92, label %94, label %93

93:                                               ; preds = %83
  store i32 2, ptr %17, align 4
  br label %118

94:                                               ; preds = %83
  %95 = load ptr, ptr %15, align 8, !tbaa !8
  %96 = getelementptr inbounds nuw %struct.bn_blinding_st, ptr %95, i32 0, i32 1
  %97 = load ptr, ptr %96, align 8, !tbaa !16
  %98 = load ptr, ptr %15, align 8, !tbaa !8
  %99 = getelementptr inbounds nuw %struct.bn_blinding_st, ptr %98, i32 0, i32 0
  %100 = load ptr, ptr %99, align 8, !tbaa !15
  %101 = load ptr, ptr %15, align 8, !tbaa !8
  %102 = getelementptr inbounds nuw %struct.bn_blinding_st, ptr %101, i32 0, i32 3
  %103 = load ptr, ptr %102, align 8, !tbaa !17
  %104 = load ptr, ptr %11, align 8, !tbaa !21
  %105 = call ptr @int_bn_mod_inverse(ptr noundef %97, ptr noundef %100, ptr noundef %103, ptr noundef %104, ptr noundef %16)
  %106 = icmp ne ptr %105, null
  br i1 %106, label %107, label %108

107:                                              ; preds = %94
  store i32 3, ptr %17, align 4
  br label %118

108:                                              ; preds = %94
  %109 = load i32, ptr %16, align 4, !tbaa !23
  %110 = icmp ne i32 %109, 0
  br i1 %110, label %112, label %111

111:                                              ; preds = %108
  store i32 2, ptr %17, align 4
  br label %118

112:                                              ; preds = %108
  %113 = load i32, ptr %14, align 4, !tbaa !23
  %114 = add nsw i32 %113, -1
  store i32 %114, ptr %14, align 4, !tbaa !23
  %115 = icmp eq i32 %113, 0
  br i1 %115, label %116, label %117

116:                                              ; preds = %112
  call void @ERR_new()
  call void @ERR_set_debug(ptr noundef @.str, i32 noundef 284, ptr noundef @__func__.BN_BLINDING_create_param)
  call void (i32, i32, ptr, ...) @ERR_set_error(i32 noundef 3, i32 noundef 113, ptr noundef null)
  store i32 2, ptr %17, align 4
  br label %118

117:                                              ; preds = %112
  store i32 0, ptr %17, align 4
  br label %118

118:                                              ; preds = %116, %111, %93, %117, %107
  call void @llvm.lifetime.end.p0(i64 4, ptr %16) #3
  %119 = load i32, ptr %17, align 4
  switch i32 %119, label %216 [
    i32 0, label %120
    i32 3, label %122
    i32 2, label %209
  ]

120:                                              ; preds = %118
  br label %121

121:                                              ; preds = %120
  br i1 true, label %83, label %122

122:                                              ; preds = %121, %118
  %123 = load ptr, ptr %15, align 8, !tbaa !8
  %124 = getelementptr inbounds nuw %struct.bn_blinding_st, ptr %123, i32 0, i32 8
  %125 = load ptr, ptr %124, align 8, !tbaa !28
  %126 = icmp ne ptr %125, null
  br i1 %126, label %127, label %156

127:                                              ; preds = %122
  %128 = load ptr, ptr %15, align 8, !tbaa !8
  %129 = getelementptr inbounds nuw %struct.bn_blinding_st, ptr %128, i32 0, i32 7
  %130 = load ptr, ptr %129, align 8, !tbaa !25
  %131 = icmp ne ptr %130, null
  br i1 %131, label %132, label %156

132:                                              ; preds = %127
  %133 = load ptr, ptr %15, align 8, !tbaa !8
  %134 = getelementptr inbounds nuw %struct.bn_blinding_st, ptr %133, i32 0, i32 8
  %135 = load ptr, ptr %134, align 8, !tbaa !28
  %136 = load ptr, ptr %15, align 8, !tbaa !8
  %137 = getelementptr inbounds nuw %struct.bn_blinding_st, ptr %136, i32 0, i32 0
  %138 = load ptr, ptr %137, align 8, !tbaa !15
  %139 = load ptr, ptr %15, align 8, !tbaa !8
  %140 = getelementptr inbounds nuw %struct.bn_blinding_st, ptr %139, i32 0, i32 0
  %141 = load ptr, ptr %140, align 8, !tbaa !15
  %142 = load ptr, ptr %15, align 8, !tbaa !8
  %143 = getelementptr inbounds nuw %struct.bn_blinding_st, ptr %142, i32 0, i32 2
  %144 = load ptr, ptr %143, align 8, !tbaa !20
  %145 = load ptr, ptr %15, align 8, !tbaa !8
  %146 = getelementptr inbounds nuw %struct.bn_blinding_st, ptr %145, i32 0, i32 3
  %147 = load ptr, ptr %146, align 8, !tbaa !17
  %148 = load ptr, ptr %11, align 8, !tbaa !21
  %149 = load ptr, ptr %15, align 8, !tbaa !8
  %150 = getelementptr inbounds nuw %struct.bn_blinding_st, ptr %149, i32 0, i32 7
  %151 = load ptr, ptr %150, align 8, !tbaa !25
  %152 = call i32 %135(ptr noundef %138, ptr noundef %141, ptr noundef %144, ptr noundef %147, ptr noundef %148, ptr noundef %151)
  %153 = icmp ne i32 %152, 0
  br i1 %153, label %155, label %154

154:                                              ; preds = %132
  br label %209

155:                                              ; preds = %132
  br label %174

156:                                              ; preds = %127, %122
  %157 = load ptr, ptr %15, align 8, !tbaa !8
  %158 = getelementptr inbounds nuw %struct.bn_blinding_st, ptr %157, i32 0, i32 0
  %159 = load ptr, ptr %158, align 8, !tbaa !15
  %160 = load ptr, ptr %15, align 8, !tbaa !8
  %161 = getelementptr inbounds nuw %struct.bn_blinding_st, ptr %160, i32 0, i32 0
  %162 = load ptr, ptr %161, align 8, !tbaa !15
  %163 = load ptr, ptr %15, align 8, !tbaa !8
  %164 = getelementptr inbounds nuw %struct.bn_blinding_st, ptr %163, i32 0, i32 2
  %165 = load ptr, ptr %164, align 8, !tbaa !20
  %166 = load ptr, ptr %15, align 8, !tbaa !8
  %167 = getelementptr inbounds nuw %struct.bn_blinding_st, ptr %166, i32 0, i32 3
  %168 = load ptr, ptr %167, align 8, !tbaa !17
  %169 = load ptr, ptr %11, align 8, !tbaa !21
  %170 = call i32 @BN_mod_exp(ptr noundef %159, ptr noundef %162, ptr noundef %165, ptr noundef %168, ptr noundef %169)
  %171 = icmp ne i32 %170, 0
  br i1 %171, label %173, label %172

172:                                              ; preds = %156
  br label %209

173:                                              ; preds = %156
  br label %174

174:                                              ; preds = %173, %155
  %175 = load ptr, ptr %15, align 8, !tbaa !8
  %176 = getelementptr inbounds nuw %struct.bn_blinding_st, ptr %175, i32 0, i32 7
  %177 = load ptr, ptr %176, align 8, !tbaa !25
  %178 = icmp ne ptr %177, null
  br i1 %178, label %179, label %207

179:                                              ; preds = %174
  %180 = load ptr, ptr %15, align 8, !tbaa !8
  %181 = getelementptr inbounds nuw %struct.bn_blinding_st, ptr %180, i32 0, i32 1
  %182 = load ptr, ptr %181, align 8, !tbaa !16
  %183 = load ptr, ptr %15, align 8, !tbaa !8
  %184 = getelementptr inbounds nuw %struct.bn_blinding_st, ptr %183, i32 0, i32 1
  %185 = load ptr, ptr %184, align 8, !tbaa !16
  %186 = load ptr, ptr %15, align 8, !tbaa !8
  %187 = getelementptr inbounds nuw %struct.bn_blinding_st, ptr %186, i32 0, i32 7
  %188 = load ptr, ptr %187, align 8, !tbaa !25
  %189 = load ptr, ptr %11, align 8, !tbaa !21
  %190 = call i32 @bn_to_mont_fixed_top(ptr noundef %182, ptr noundef %185, ptr noundef %188, ptr noundef %189)
  %191 = icmp ne i32 %190, 0
  br i1 %191, label %192, label %205

192:                                              ; preds = %179
  %193 = load ptr, ptr %15, align 8, !tbaa !8
  %194 = getelementptr inbounds nuw %struct.bn_blinding_st, ptr %193, i32 0, i32 0
  %195 = load ptr, ptr %194, align 8, !tbaa !15
  %196 = load ptr, ptr %15, align 8, !tbaa !8
  %197 = getelementptr inbounds nuw %struct.bn_blinding_st, ptr %196, i32 0, i32 0
  %198 = load ptr, ptr %197, align 8, !tbaa !15
  %199 = load ptr, ptr %15, align 8, !tbaa !8
  %200 = getelementptr inbounds nuw %struct.bn_blinding_st, ptr %199, i32 0, i32 7
  %201 = load ptr, ptr %200, align 8, !tbaa !25
  %202 = load ptr, ptr %11, align 8, !tbaa !21
  %203 = call i32 @bn_to_mont_fixed_top(ptr noundef %195, ptr noundef %198, ptr noundef %201, ptr noundef %202)
  %204 = icmp ne i32 %203, 0
  br i1 %204, label %206, label %205

205:                                              ; preds = %192, %179
  br label %209

206:                                              ; preds = %192
  br label %207

207:                                              ; preds = %206, %174
  %208 = load ptr, ptr %15, align 8, !tbaa !8
  store ptr %208, ptr %7, align 8
  store i32 1, ptr %17, align 4
  br label %216

209:                                              ; preds = %118, %205, %172, %154, %67, %50, %39, %28
  %210 = load ptr, ptr %8, align 8, !tbaa !8
  %211 = icmp eq ptr %210, null
  br i1 %211, label %212, label %214

212:                                              ; preds = %209
  %213 = load ptr, ptr %15, align 8, !tbaa !8
  call void @BN_BLINDING_free(ptr noundef %213)
  store ptr null, ptr %15, align 8, !tbaa !8
  br label %214

214:                                              ; preds = %212, %209
  %215 = load ptr, ptr %15, align 8, !tbaa !8
  store ptr %215, ptr %7, align 8
  store i32 1, ptr %17, align 4
  br label %216

216:                                              ; preds = %214, %207, %118
  call void @llvm.lifetime.end.p0(i64 8, ptr %15) #3
  call void @llvm.lifetime.end.p0(i64 4, ptr %14) #3
  %217 = load ptr, ptr %7, align 8
  ret ptr %217
}