; Function Attrs: nounwind uwtable
define noundef ptr @BN_BLINDING_create_param(ptr noundef %0, ptr noundef %1, ptr noundef %2, ptr noundef %3, ptr noundef %4, ptr noundef %5) local_unnamed_addr #0 {
  %7 = alloca i32, align 4
  %8 = icmp ne ptr %0, null
  br i1 %8, label %.thread, label %9

9:                                                ; preds = %6
  %10 = tail call ptr @BN_BLINDING_new(ptr noundef null, ptr noundef null, ptr noundef %2)
  %11 = icmp eq ptr %10, null
  br i1 %11, label %BN_BLINDING_free.exit, label %.thread

.thread:                                          ; preds = %6, %9
  %.05580 = phi ptr [ %10, %9 ], [ %0, %6 ]
  %12 = load ptr, ptr %.05580, align 8, !tbaa !13
  %13 = icmp eq ptr %12, null
  br i1 %13, label %14, label %17

14:                                               ; preds = %.thread
  %15 = tail call ptr @BN_new() #6
  store ptr %15, ptr %.05580, align 8, !tbaa !13
  %16 = icmp eq ptr %15, null
  br i1 %16, label %81, label %17

17:                                               ; preds = %14, %.thread
  %18 = getelementptr inbounds nuw i8, ptr %.05580, i64 8
  %19 = load ptr, ptr %18, align 8, !tbaa !14
  %20 = icmp eq ptr %19, null
  br i1 %20, label %21, label %24

21:                                               ; preds = %17
  %22 = tail call ptr @BN_new() #6
  store ptr %22, ptr %18, align 8, !tbaa !14
  %23 = icmp eq ptr %22, null
  br i1 %23, label %81, label %24

24:                                               ; preds = %21, %17
  %.not = icmp eq ptr %1, null
  %.phi.trans.insert = getelementptr inbounds nuw i8, ptr %.05580, i64 16
  %.pre = load ptr, ptr %.phi.trans.insert, align 8, !tbaa !17
  br i1 %.not, label %._crit_edge, label %25

25:                                               ; preds = %24
  tail call void @BN_free(ptr noundef %.pre) #6
  %26 = tail call ptr @BN_dup(ptr noundef nonnull %1) #6
  store ptr %26, ptr %.phi.trans.insert, align 8, !tbaa !17
  br label %._crit_edge

._crit_edge:                                      ; preds = %24, %25
  %27 = phi ptr [ %26, %25 ], [ %.pre, %24 ]
  %28 = getelementptr inbounds nuw i8, ptr %.05580, i64 16
  %29 = icmp eq ptr %27, null
  br i1 %29, label %81, label %30

30:                                               ; preds = %._crit_edge
  %.not66 = icmp eq ptr %4, null
  br i1 %.not66, label %33, label %31

31:                                               ; preds = %30
  %32 = getelementptr inbounds nuw i8, ptr %.05580, i64 64
  store ptr %4, ptr %32, align 8, !tbaa !20
  br label %33

33:                                               ; preds = %31, %30
  %.not67 = icmp eq ptr %5, null
  br i1 %.not67, label %36, label %34

34:                                               ; preds = %33
  %35 = getelementptr inbounds nuw i8, ptr %.05580, i64 56
  store ptr %5, ptr %35, align 8, !tbaa !19
  br label %36

36:                                               ; preds = %34, %33
  %37 = getelementptr inbounds nuw i8, ptr %.05580, i64 24
  call void @llvm.lifetime.start.p0(i64 4, ptr nonnull %7) #6
  %38 = load ptr, ptr %.05580, align 8, !tbaa !13
  %39 = load ptr, ptr %37, align 8, !tbaa !15
  %40 = tail call i32 @BN_priv_rand_range_ex(ptr noundef %38, ptr noundef %39, i32 noundef 0, ptr noundef %3) #6
  %.not6895 = icmp eq i32 %40, 0
  br i1 %.not6895, label %.thread83, label %.lr.ph

.lr.ph:                                           ; preds = %36, %50
  %.05696 = phi i32 [ %51, %50 ], [ 32, %36 ]
  %41 = load ptr, ptr %18, align 8, !tbaa !14
  %42 = load ptr, ptr %.05580, align 8, !tbaa !13
  %43 = load ptr, ptr %37, align 8, !tbaa !15
  %44 = call ptr @int_bn_mod_inverse(ptr noundef %41, ptr noundef %42, ptr noundef %43, ptr noundef %3, ptr noundef nonnull %7) #6
  %.not69 = icmp eq ptr %44, null
  br i1 %.not69, label %45, label %55

45:                                               ; preds = %.lr.ph
  %46 = load i32, ptr %7, align 4, !tbaa !21
  %.not70 = icmp eq i32 %46, 0
  br i1 %.not70, label %.thread83, label %47

47:                                               ; preds = %45
  %48 = icmp eq i32 %.05696, 0
  br i1 %48, label %49, label %50

49:                                               ; preds = %47
  call void @ERR_new() #6
  call void @ERR_set_debug(ptr noundef nonnull @.str, i32 noundef 284, ptr noundef nonnull @__func__.BN_BLINDING_create_param) #6
  call void (i32, i32, ptr, ...) @ERR_set_error(i32 noundef 3, i32 noundef 113, ptr noundef null) #6
  br label %.thread83

.thread83:                                        ; preds = %45, %50, %36, %49
  call void @llvm.lifetime.end.p0(i64 4, ptr nonnull %7) #6
  br label %81

50:                                               ; preds = %47
  %51 = add nsw i32 %.05696, -1
  call void @llvm.lifetime.end.p0(i64 4, ptr nonnull %7) #6
  call void @llvm.lifetime.start.p0(i64 4, ptr nonnull %7) #6
  %52 = load ptr, ptr %.05580, align 8, !tbaa !13
  %53 = load ptr, ptr %37, align 8, !tbaa !15
  %54 = call i32 @BN_priv_rand_range_ex(ptr noundef %52, ptr noundef %53, i32 noundef 0, ptr noundef %3) #6
  %.not68 = icmp eq i32 %54, 0
  br i1 %.not68, label %.thread83, label %.lr.ph

55:                                               ; preds = %.lr.ph
  call void @llvm.lifetime.end.p0(i64 4, ptr nonnull %7) #6
  %56 = getelementptr inbounds nuw i8, ptr %.05580, i64 64
  %57 = load ptr, ptr %56, align 8, !tbaa !20
  %.not71 = icmp eq ptr %57, null
  br i1 %.not71, label %66, label %58

58:                                               ; preds = %55
  %59 = getelementptr inbounds nuw i8, ptr %.05580, i64 56
  %60 = load ptr, ptr %59, align 8, !tbaa !19
  %.not72 = icmp eq ptr %60, null
  br i1 %.not72, label %66, label %61

61:                                               ; preds = %58
  %62 = load ptr, ptr %.05580, align 8, !tbaa !13
  %63 = load ptr, ptr %28, align 8, !tbaa !17
  %64 = load ptr, ptr %37, align 8, !tbaa !15
  %65 = call i32 %57(ptr noundef %62, ptr noundef %62, ptr noundef %63, ptr noundef %64, ptr noundef %3, ptr noundef nonnull %60) #6
  %.not74 = icmp eq i32 %65, 0
  br i1 %.not74, label %81, label %71

66:                                               ; preds = %58, %55
  %67 = load ptr, ptr %.05580, align 8, !tbaa !13
  %68 = load ptr, ptr %28, align 8, !tbaa !17
  %69 = load ptr, ptr %37, align 8, !tbaa !15
  %70 = call i32 @BN_mod_exp(ptr noundef %67, ptr noundef %67, ptr noundef %68, ptr noundef %69, ptr noundef %3) #6
  %.not73 = icmp eq i32 %70, 0
  br i1 %.not73, label %81, label %71

71:                                               ; preds = %66, %61
  %72 = getelementptr inbounds nuw i8, ptr %.05580, i64 56
  %73 = load ptr, ptr %72, align 8, !tbaa !19
  %.not75 = icmp eq ptr %73, null
  br i1 %.not75, label %BN_BLINDING_free.exit, label %74

74:                                               ; preds = %71
  %75 = load ptr, ptr %18, align 8, !tbaa !14
  %76 = call i32 @bn_to_mont_fixed_top(ptr noundef %75, ptr noundef %75, ptr noundef nonnull %73, ptr noundef %3) #6
  %.not76 = icmp eq i32 %76, 0
  br i1 %.not76, label %81, label %77

77:                                               ; preds = %74
  %78 = load ptr, ptr %.05580, align 8, !tbaa !13
  %79 = load ptr, ptr %72, align 8, !tbaa !19
  %80 = call i32 @bn_to_mont_fixed_top(ptr noundef %78, ptr noundef %78, ptr noundef %79, ptr noundef %3) #6
  %.not77 = icmp ne i32 %80, 0
  %brmerge = or i1 %8, %.not77
  br i1 %brmerge, label %BN_BLINDING_free.exit, label %82

81:                                               ; preds = %.thread83, %74, %66, %61, %._crit_edge, %21, %14
  br i1 %8, label %BN_BLINDING_free.exit, label %82

82:                                               ; preds = %81, %77
  %83 = load ptr, ptr %.05580, align 8, !tbaa !13
  call void @BN_free(ptr noundef %83) #6
  %84 = getelementptr inbounds nuw i8, ptr %.05580, i64 8
  %85 = load ptr, ptr %84, align 8, !tbaa !14
  call void @BN_free(ptr noundef %85) #6
  %86 = getelementptr inbounds nuw i8, ptr %.05580, i64 16
  %87 = load ptr, ptr %86, align 8, !tbaa !17
  call void @BN_free(ptr noundef %87) #6
  %88 = getelementptr inbounds nuw i8, ptr %.05580, i64 24
  %89 = load ptr, ptr %88, align 8, !tbaa !15
  call void @BN_free(ptr noundef %89) #6
  %90 = getelementptr inbounds nuw i8, ptr %.05580, i64 72
  %91 = load ptr, ptr %90, align 8, !tbaa !3
  call void @CRYPTO_THREAD_lock_free(ptr noundef %91) #6
  call void @CRYPTO_free(ptr noundef nonnull %.05580, ptr noundef nonnull @.str, i32 noundef 88) #6
  br label %BN_BLINDING_free.exit

BN_BLINDING_free.exit:                            ; preds = %9, %82, %77, %81, %71
  %.058 = phi ptr [ %.05580, %77 ], [ %.05580, %71 ], [ %.05580, %81 ], [ null, %82 ], [ null, %9 ]
  ret ptr %.058
}